Certificate:
    Data:
        Version: 3 (0x2)
        Serial Number: 14839499938491587043 (0xcdf07e922e38d9e3)
    Signature Algorithm: sha1WithRSAEncryption
        Issuer: C=IN, ST=AP, L=HYD, O=cavium, OU=hydcavium, CN=localhost
        Validity
            Not Before: Sep 12 15:44:39 2012 GMT
            Not After : Jun  9 15:44:39 2015 GMT
        Subject: C=IN, ST=AP, L=HYD, O=cavium, OU=hydcavium, CN=localhost
        Subject Public Key Info:
            Public Key Algorithm: rsaEncryption
                Public-Key: (1024 bit)
                Modulus:
                    00:ca:fb:ed:e8:f0:d7:3c:87:2d:72:28:ca:a4:51:
                    fd:35:e8:82:38:46:aa:3c:70:c1:32:19:28:ce:1d:
                    ca:86:31:82:fd:33:8d:4d:5a:48:eb:82:45:00:b0:
                    b4:b1:28:64:26:26:2c:38:3f:52:be:ec:f0:e3:ef:
                    fc:2d:0e:90:63:36:03:8c:94:73:9d:33:04:52:60:
                    ff:30:10:79:c4:4c:70:49:d4:67:66:0d:fb:26:6b:
                    56:af:86:9c:66:db:68:f8:dd:d5:2f:00:89:f2:fc:
                    60:f8:bc:41:72:88:07:ce:bf:e3:d4:e1:5d:81:22:
                    68:b4:43:c0:16:2c:d1:69:09
                Exponent: 65537 (0x10001)
        X509v3 extensions:
            X509v3 Subject Key Identifier: 
                46:AD:FE:41:56:77:F2:4C:3E:21:B2:51:47:14:31:9C:0E:B0:7E:9F
            X509v3 Authority Key Identifier: 
                keyid:46:AD:FE:41:56:77:F2:4C:3E:21:B2:51:47:14:31:9C:0E:B0:7E:9F

            X509v3 Basic Constraints: 
                CA:TRUE
    Signature Algorithm: sha1WithRSAEncryption
         95:0a:f3:22:66:f4:c5:27:9c:02:81:62:a2:a8:4a:d7:69:4e:
         55:13:99:67:9c:68:14:51:83:89:26:9f:12:2f:da:59:6a:03:
         8d:b9:5b:eb:94:6e:9b:88:75:f4:01:3e:05:59:67:98:e0:97:
         74:aa:e7:41:9a:2a:75:50:52:6d:40:46:5c:38:bd:0c:70:f9:
         d1:6f:d5:d0:c7:ad:a3:d0:35:4d:e9:cc:c5:2b:c4:4c:9a:70:
         ff:c1:dc:3f:49:d0:f9:e2:8f:c2:8b:d4:96:77:35:0c:4f:44:
         b0:0c:f9:f6:87:fd:dd:5a:b4:6b:08:b1:76:49:e5:6b:7e:bc:
         89:4b
subject=/C=IN/ST=AP/L=HYD/O=cavium/OU=hydcavium/CN=localhost
-----BEGIN CERTIFICATE-----
MIICkDCCAfmgAwIBAgIJAM3wfpIuONnjMA0GCSqGSIb3DQEBBQUAMGExCzAJBgNV
BAYTAklOMQswCQYDVQQIDAJBUDEMMAoGA1UEBwwDSFlEMQ8wDQYDVQQKDAZjYXZp
dW0xEjAQBgNVBAsMCWh5ZGNhdml1bTESMBAGA1UEAwwJbG9jYWxob3N0MB4XDTEy
MDkxMjE1NDQzOVoXDTE1MDYwOTE1NDQzOVowYTELMAkGA1UEBhMCSU4xCzAJBgNV
BAgMAkFQMQwwCgYDVQQHDANIWUQxDzANBgNVBAoMBmNhdml1bTESMBAGA1UECwwJ
aHlkY2F2aXVtMRIwEAYDVQQDDAlsb2NhbGhvc3QwgZ8wDQYJKoZIhvcNAQEBBQAD
gY0AMIGJAoGBAMr77ejw1zyHLXIoyqRR/TXogjhGqjxwwTIZKM4dyoYxgv0zjU1a
SOuCRQCwtLEoZCYmLDg/Ur7s8OPv/C0OkGM2A4yUc50zBFJg/zAQecRMcEnUZ2YN
+yZrVq+GnGbbaPjd1S8AifL8YPi8QXKIB86/49ThXYEiaLRDwBYs0WkJAgMBAAGj
UDBOMB0GA1UdDgQWBBRGrf5BVnfyTD4hslFHFDGcDrB+nzAfBgNVHSMEGDAWgBRG
rf5BVnfyTD4hslFHFDGcDrB+nzAMBgNVHRMEBTADAQH/MA0GCSqGSIb3DQEBBQUA
A4GBAJUK8yJm9MUnnAKBYqKoStdpTlUTmWecaBRRg4kmnxIv2llqA425W+uUbpuI
dfQBPgVZZ5jgl3Sq50GaKnVQUm1ARlw4vQxw+dFv1dDHraPQNU3pzMUrxEyacP/B
3D9J0Pnij8KL1JZ3NQxPRLAM+faH/d1atGsIsXZJ5Wt+vIlL
-----END CERTIFICATE-----
